target datalayout = "e-m:e-p270:32:32-p271:32:32-p272:64:64-i64:64-i128:128-f80:128-n8:16:32:64-S128"
target triple = "x86_64-unknown-linux-gnu"

%"class.boost::detail::shared_count" = type { ptr }
%"class.QuantLib::DayCounter" = type { %"class.boost::shared_ptr.8" }
%"class.boost::shared_ptr.8" = type { ptr, %"class.boost::detail::shared_count" }
%"class.QuantLib::Calendar" = type { %"class.boost::shared_ptr.9" }
%"class.boost::shared_ptr.9" = type { ptr, %"class.boost::detail::shared_count" }
%"class.boost::detail::sp_counted_base" = type { ptr, i32, i32 }

; Function Attrs: inlinehint mustprogress nounwind uwtable
define linkonce_odr void @_ZN5boost6detail16atomic_incrementEPj(ptr noundef %pw) #5 comdat {
entry:
  %pw.addr = alloca ptr, align 8
  %.atomictmp = alloca i32, align 4
  %atomic-temp = alloca i32, align 4
  store ptr %pw, ptr %pw.addr, align 8, !tbaa !3
  %0 = load ptr, ptr %pw.addr, align 8, !tbaa !3
  store i32 1, ptr %.atomictmp, align 4, !tbaa !18
  %1 = load i32, ptr %.atomictmp, align 4
  %2 = atomicrmw add ptr %0, i32 %1 monotonic, align 4
  store i32 %2, ptr %atomic-temp, align 4
  ret void
}

; Function Attrs: mustprogress uwtable
define linkonce_odr void @_ZN5boost6detail15sp_counted_base12add_ref_copyEv(ptr noundef nonnull align 8 dereferenceable(16) %this) #2 comdat align 2 {
entry:
  %this.addr = alloca ptr, align 8
  store ptr %this, ptr %this.addr, align 8, !tbaa !3
  %this1 = load ptr, ptr %this.addr, align 8
  %use_count_ = getelementptr inbounds nuw %"class.boost::detail::sp_counted_base", ptr %this1, i32 0, i32 1
  call void @_ZN5boost6detail16atomic_incrementEPj(ptr noundef %use_count_)
  ret void
}

; Function Attrs: mustprogress nounwind uwtable
define linkonce_odr void @_ZN5boost6detail12shared_countC2ERKS1_(ptr noundef nonnull align 8 dereferenceable(8) %this, ptr noundef nonnull align 8 dereferenceable(8) %r) unnamed_addr #1 comdat align 2 personality ptr @__gxx_personality_v0 {
entry:
  %this.addr = alloca ptr, align 8
  %r.addr = alloca ptr, align 8
  store ptr %this, ptr %this.addr, align 8, !tbaa !3
  store ptr %r, ptr %r.addr, align 8, !tbaa !3
  %this1 = load ptr, ptr %this.addr, align 8
  %pi_ = getelementptr inbounds nuw %"class.boost::detail::shared_count", ptr %this1, i32 0, i32 0
  %0 = load ptr, ptr %r.addr, align 8, !tbaa !3
  %pi_2 = getelementptr inbounds nuw %"class.boost::detail::shared_count", ptr %0, i32 0, i32 0
  %1 = load ptr, ptr %pi_2, align 8, !tbaa !154
  store ptr %1, ptr %pi_, align 8, !tbaa !154
  %pi_3 = getelementptr inbounds nuw %"class.boost::detail::shared_count", ptr %this1, i32 0, i32 0
  %2 = load ptr, ptr %pi_3, align 8, !tbaa !154
  %cmp = icmp ne ptr %2, null
  br i1 %cmp, label %if.then, label %if.end

if.then:                                          ; preds = %entry
  %pi_4 = getelementptr inbounds nuw %"class.boost::detail::shared_count", ptr %this1, i32 0, i32 0
  %3 = load ptr, ptr %pi_4, align 8, !tbaa !154
  invoke void @_ZN5boost6detail15sp_counted_base12add_ref_copyEv(ptr noundef nonnull align 8 dereferenceable(16) %3)
          to label %invoke.cont unwind label %terminate.lpad

invoke.cont:                                      ; preds = %if.then
  br label %if.end

if.end:                                           ; preds = %invoke.cont, %entry
  ret void

terminate.lpad:                                   ; preds = %if.then
  %4 = landingpad { ptr, i32 }
          catch ptr null
  %5 = extractvalue { ptr, i32 } %4, 0
  call void @__clang_call_terminate(ptr %5) #22
  unreachable
}

; Function Attrs: mustprogress nounwind uwtable
define linkonce_odr void @_ZN5boost10shared_ptrIN8QuantLib10DayCounter4ImplEEC2ERKS4_(ptr noundef nonnull align 8 dereferenceable(16) %this, ptr noundef nonnull align 8 dereferenceable(16) %r) unnamed_addr #1 comdat align 2 {
entry:
  %this.addr = alloca ptr, align 8
  %r.addr = alloca ptr, align 8
  store ptr %this, ptr %this.addr, align 8, !tbaa !3
  store ptr %r, ptr %r.addr, align 8, !tbaa !3
  %this1 = load ptr, ptr %this.addr, align 8
  %px = getelementptr inbounds nuw %"class.boost::shared_ptr.8", ptr %this1, i32 0, i32 0
  %0 = load ptr, ptr %r.addr, align 8, !tbaa !3
  %px2 = getelementptr inbounds nuw %"class.boost::shared_ptr.8", ptr %0, i32 0, i32 0
  %1 = load ptr, ptr %px2, align 8, !tbaa !153
  store ptr %1, ptr %px, align 8, !tbaa !153
  %pn = getelementptr inbounds nuw %"class.boost::shared_ptr.8", ptr %this1, i32 0, i32 1
  %2 = load ptr, ptr %r.addr, align 8, !tbaa !3
  %pn3 = getelementptr inbounds nuw %"class.boost::shared_ptr.8", ptr %2, i32 0, i32 1
  call void @_ZN5boost6detail12shared_countC2ERKS1_(ptr noundef nonnull align 8 dereferenceable(8) %pn, ptr noundef nonnull align 8 dereferenceable(8) %pn3) #15
  ret void
}

; Function Attrs: mustprogress nounwind uwtable
define linkonce_odr void @_ZN5boost10shared_ptrIN8QuantLib8Calendar4ImplEEC2ERKS4_(ptr noundef nonnull align 8 dereferenceable(16) %this, ptr noundef nonnull align 8 dereferenceable(16) %r) unnamed_addr #1 comdat align 2 {
entry:
  %this.addr = alloca ptr, align 8
  %r.addr = alloca ptr, align 8
  store ptr %this, ptr %this.addr, align 8, !tbaa !3
  store ptr %r, ptr %r.addr, align 8, !tbaa !3
  %this1 = load ptr, ptr %this.addr, align 8
  %px = getelementptr inbounds nuw %"class.boost::shared_ptr.9", ptr %this1, i32 0, i32 0
  %0 = load ptr, ptr %r.addr, align 8, !tbaa !3
  %px2 = getelementptr inbounds nuw %"class.boost::shared_ptr.9", ptr %0, i32 0, i32 0
  %1 = load ptr, ptr %px2, align 8, !tbaa !155
  store ptr %1, ptr %px, align 8, !tbaa !155
  %pn = getelementptr inbounds nuw %"class.boost::shared_ptr.9", ptr %this1, i32 0, i32 1
  %2 = load ptr, ptr %r.addr, align 8, !tbaa !3
  %pn3 = getelementptr inbounds nuw %"class.boost::shared_ptr.9", ptr %2, i32 0, i32 1
  call void @_ZN5boost6detail12shared_countC2ERKS1_(ptr noundef nonnull align 8 dereferenceable(8) %pn, ptr noundef nonnull align 8 dereferenceable(8) %pn3) #15
  ret void
}

; Function Attrs: inlinehint mustprogress nounwind uwtable
define linkonce_odr void @_ZN8QuantLib10DayCounterC2ERKS0_(ptr noundef nonnull align 8 dereferenceable(16) %this, ptr noundef nonnull align 8 dereferenceable(16) %0) unnamed_addr #5 comdat align 2 {
entry:
  %this.addr = alloca ptr, align 8
  %.addr = alloca ptr, align 8
  store ptr %this, ptr %this.addr, align 8, !tbaa !3
  store ptr %0, ptr %.addr, align 8, !tbaa !3
  %this1 = load ptr, ptr %this.addr, align 8
  %impl_ = getelementptr inbounds nuw %"class.QuantLib::DayCounter", ptr %this1, i32 0, i32 0
  %1 = load ptr, ptr %.addr, align 8, !tbaa !3
  %impl_2 = getelementptr inbounds nuw %"class.QuantLib::DayCounter", ptr %1, i32 0, i32 0
  call void @_ZN5boost10shared_ptrIN8QuantLib10DayCounter4ImplEEC2ERKS4_(ptr noundef nonnull align 8 dereferenceable(16) %impl_, ptr noundef nonnull align 8 dereferenceable(16) %impl_2) #15
  ret void
}

; Function Attrs: inlinehint mustprogress nounwind uwtable
define linkonce_odr void @_ZN8QuantLib8CalendarC2ERKS0_(ptr noundef nonnull align 8 dereferenceable(16) %this, ptr noundef nonnull align 8 dereferenceable(16) %0) unnamed_addr #5 comdat align 2 {
entry:
  %this.addr = alloca ptr, align 8
  %.addr = alloca ptr, align 8
  store ptr %this, ptr %this.addr, align 8, !tbaa !3
  store ptr %0, ptr %.addr, align 8, !tbaa !3
  %this1 = load ptr, ptr %this.addr, align 8
  %impl_ = getelementptr inbounds nuw %"class.QuantLib::Calendar", ptr %this1, i32 0, i32 0
  %1 = load ptr, ptr %.addr, align 8, !tbaa !3
  %impl_2 = getelementptr inbounds nuw %"class.QuantLib::Calendar", ptr %1, i32 0, i32 0
  call void @_ZN5boost10shared_ptrIN8QuantLib8Calendar4ImplEEC2ERKS4_(ptr noundef nonnull align 8 dereferenceable(16) %impl_, ptr noundef nonnull align 8 dereferenceable(16) %impl_2) #15
  ret void
}

; Function Attrs: mustprogress uwtable
define void @_ZN8QuantLib15SpreadCdsHelperC2ERKNS_6HandleINS_5QuoteEEERKNS_6PeriodEiRKNS_8CalendarENS_9FrequencyENS_21BusinessDayConventionENS_14DateGeneration4RuleERKNS_10DayCounterEdRKNS1_INS_18YieldTermStructureEEEbbRKNS_4DateESI_bNS_17CreditDefaultSwap12PricingModelE(ptr noundef nonnull align 8 dereferenceable(488) %this, ptr noundef nonnull align 8 dereferenceable(16) %runningSpread, ptr noundef nonnull align 4 dereferenceable(8) %tenor, i32 noundef %settlementDays, ptr noundef nonnull align 8 dereferenceable(16) %calendar, i32 noundef %frequency, i32 noundef %paymentConvention, i32 noundef %rule, ptr noundef nonnull align 8 dereferenceable(16) %dayCounter, double noundef %recoveryRate, ptr noundef nonnull align 8 dereferenceable(16) %discountCurve, i1 noundef zeroext %settlesAccrual, i1 noundef zeroext %paysAtDefaultTime, ptr noundef nonnull align 8 dereferenceable(8) %startDate, ptr noundef nonnull align 8 dereferenceable(16) %lastPeriodDayCounter, i1 noundef zeroext %rebatesAccrual, i32 noundef %model) unnamed_addr #2 align 2 personality ptr @__gxx_personality_v0 {
entry:
  %this.addr = alloca ptr, align 8
  %runningSpread.addr = alloca ptr, align 8
  %tenor.addr = alloca ptr, align 8
  %settlementDays.addr = alloca i32, align 4
  %calendar.addr = alloca ptr, align 8
  %frequency.addr = alloca i32, align 4
  %paymentConvention.addr = alloca i32, align 4
  %rule.addr = alloca i32, align 4
  %dayCounter.addr = alloca ptr, align 8
  %recoveryRate.addr = alloca double, align 8
  %discountCurve.addr = alloca ptr, align 8
  %settlesAccrual.addr = alloca i8, align 1
  %paysAtDefaultTime.addr = alloca i8, align 1
  %startDate.addr = alloca ptr, align 8
  %lastPeriodDayCounter.addr = alloca ptr, align 8
  %rebatesAccrual.addr = alloca i8, align 1
  %model.addr = alloca i32, align 4
  %agg.tmp = alloca %"class.QuantLib::Calendar", align 8
  %agg.tmp4 = alloca %"class.QuantLib::DayCounter", align 8
  %agg.tmp6 = alloca %"class.QuantLib::DayCounter", align 8
  %exn.slot = alloca ptr, align 8
  %ehselector.slot = alloca i32, align 4
  store ptr %this, ptr %this.addr, align 8, !tbaa !3
  store ptr %runningSpread, ptr %runningSpread.addr, align 8, !tbaa !3
  store ptr %tenor, ptr %tenor.addr, align 8, !tbaa !3
  store i32 %settlementDays, ptr %settlementDays.addr, align 4, !tbaa !18
  store ptr %calendar, ptr %calendar.addr, align 8, !tbaa !3
  store i32 %frequency, ptr %frequency.addr, align 4, !tbaa !20
  store i32 %paymentConvention, ptr %paymentConvention.addr, align 4, !tbaa !22
  store i32 %rule, ptr %rule.addr, align 4, !tbaa !24
  store ptr %dayCounter, ptr %dayCounter.addr, align 8, !tbaa !3
  store double %recoveryRate, ptr %recoveryRate.addr, align 8, !tbaa !26
  store ptr %discountCurve, ptr %discountCurve.addr, align 8, !tbaa !3
  %storedv = zext i1 %settlesAccrual to i8
  store i8 %storedv, ptr %settlesAccrual.addr, align 1, !tbaa !27
  %storedv1 = zext i1 %paysAtDefaultTime to i8
  store i8 %storedv1, ptr %paysAtDefaultTime.addr, align 1, !tbaa !27
  store ptr %startDate, ptr %startDate.addr, align 8, !tbaa !3
  store ptr %lastPeriodDayCounter, ptr %lastPeriodDayCounter.addr, align 8, !tbaa !3
  %storedv2 = zext i1 %rebatesAccrual to i8
  store i8 %storedv2, ptr %rebatesAccrual.addr, align 1, !tbaa !27
  store i32 %model, ptr %model.addr, align 4, !tbaa !29
  %this3 = load ptr, ptr %this.addr, align 8
  %0 = load ptr, ptr %runningSpread.addr, align 8, !tbaa !3
  %1 = load ptr, ptr %tenor.addr, align 8, !tbaa !3
  %2 = load i32, ptr %settlementDays.addr, align 4, !tbaa !18
  %3 = load ptr, ptr %calendar.addr, align 8, !tbaa !3
  call void @_ZN8QuantLib8CalendarC2ERKS0_(ptr noundef nonnull align 8 dereferenceable(16) %agg.tmp, ptr noundef nonnull align 8 dereferenceable(16) %3) #15
  %4 = load i32, ptr %frequency.addr, align 4, !tbaa !20
  %5 = load i32, ptr %paymentConvention.addr, align 4, !tbaa !22
  %6 = load i32, ptr %rule.addr, align 4, !tbaa !24
  %7 = load ptr, ptr %dayCounter.addr, align 8, !tbaa !3
  call void @_ZN8QuantLib10DayCounterC2ERKS0_(ptr noundef nonnull align 8 dereferenceable(16) %agg.tmp4, ptr noundef nonnull align 8 dereferenceable(16) %7) #15
  %8 = load double, ptr %recoveryRate.addr, align 8, !tbaa !26
  %9 = load ptr, ptr %discountCurve.addr, align 8, !tbaa !3
  %10 = load i8, ptr %settlesAccrual.addr, align 1, !tbaa !27, !range !92, !noundef !93
  %loadedv = trunc i8 %10 to i1
  %11 = load i8, ptr %paysAtDefaultTime.addr, align 1, !tbaa !27, !range !92, !noundef !93
  %loadedv5 = trunc i8 %11 to i1
  %12 = load ptr, ptr %startDate.addr, align 8, !tbaa !3
  %13 = load ptr, ptr %lastPeriodDayCounter.addr, align 8, !tbaa !3
  call void @_ZN8QuantLib10DayCounterC2ERKS0_(ptr noundef nonnull align 8 dereferenceable(16) %agg.tmp6, ptr noundef nonnull align 8 dereferenceable(16) %13) #15
  %14 = load i8, ptr %rebatesAccrual.addr, align 1, !tbaa !27, !range !92, !noundef !93
  %loadedv7 = trunc i8 %14 to i1
  %15 = load i32, ptr %model.addr, align 4, !tbaa !29
  invoke void @_ZN8QuantLib9CdsHelperC2ERKNS_6HandleINS_5QuoteEEERKNS_6PeriodEiNS_8CalendarENS_9FrequencyENS_21BusinessDayConventionENS_14DateGeneration4RuleENS_10DayCounterEdRKNS1_INS_18YieldTermStructureEEEbbRKNS_4DateESE_bNS_17CreditDefaultSwap12PricingModelE(ptr noundef nonnull align 8 dereferenceable(488) %this3, ptr noundef nonnull align 8 dereferenceable(16) %0, ptr noundef nonnull align 4 dereferenceable(8) %1, i32 noundef %2, ptr noundef %agg.tmp, i32 noundef %4, i32 noundef %5, i32 noundef %6, ptr noundef %agg.tmp4, double noundef %8, ptr noundef nonnull align 8 dereferenceable(16) %9, i1 noundef zeroext %loadedv, i1 noundef zeroext %loadedv5, ptr noundef nonnull align 8 dereferenceable(8) %12, ptr noundef %agg.tmp6, i1 noundef zeroext %loadedv7, i32 noundef %15)
          to label %invoke.cont unwind label %lpad

invoke.cont:                                      ; preds = %entry
  call void @_ZN8QuantLib10DayCounterD2Ev(ptr noundef nonnull align 8 dereferenceable(16) %agg.tmp6) #15
  call void @_ZN8QuantLib10DayCounterD2Ev(ptr noundef nonnull align 8 dereferenceable(16) %agg.tmp4) #15
  call void @_ZN8QuantLib8CalendarD2Ev(ptr noundef nonnull align 8 dereferenceable(16) %agg.tmp) #15
  store ptr getelementptr inbounds inrange(-16, 112) ({ [16 x ptr], [4 x ptr] }, ptr @_ZTVN8QuantLib15SpreadCdsHelperE, i32 0, i32 0, i32 2), ptr %this3, align 8, !tbaa !12
  %add.ptr = getelementptr inbounds i8, ptr %this3, i64 56
  store ptr getelementptr inbounds inrange(-16, 16) ({ [16 x ptr], [4 x ptr] }, ptr @_ZTVN8QuantLib15SpreadCdsHelperE, i32 0, i32 1, i32 2), ptr %add.ptr, align 8, !tbaa !12
  ret void

lpad:                                             ; preds = %entry
  %16 = landingpad { ptr, i32 }
          cleanup
  %17 = extractvalue { ptr, i32 } %16, 0
  store ptr %17, ptr %exn.slot, align 8
  %18 = extractvalue { ptr, i32 } %16, 1
  store i32 %18, ptr %ehselector.slot, align 4
  call void @_ZN8QuantLib10DayCounterD2Ev(ptr noundef nonnull align 8 dereferenceable(16) %agg.tmp6) #15
  call void @_ZN8QuantLib10DayCounterD2Ev(ptr noundef nonnull align 8 dereferenceable(16) %agg.tmp4) #15
  call void @_ZN8QuantLib8CalendarD2Ev(ptr noundef nonnull align 8 dereferenceable(16) %agg.tmp) #15
  br label %eh.resume

eh.resume:                                        ; preds = %lpad
  %exn = load ptr, ptr %exn.slot, align 8
  %sel = load i32, ptr %ehselector.slot, align 4
  %lpad.val = insertvalue { ptr, i32 } poison, ptr %exn, 0
  %lpad.val8 = insertvalue { ptr, i32 } %lpad.val, i32 %sel, 1
  resume { ptr, i32 } %lpad.val8
}