; Function Attrs: mustprogress uwtable
define void @_ZN8QuantLib15SpreadCdsHelperC2ERKNS_6HandleINS_5QuoteEEERKNS_6PeriodEiRKNS_8CalendarENS_9FrequencyENS_21BusinessDayConventionENS_14DateGeneration4RuleERKNS_10DayCounterEdRKNS1_INS_18YieldTermStructureEEEbbRKNS_4DateESI_bNS_17CreditDefaultSwap12PricingModelE(ptr noundef nonnull align 8 dereferenceable(488) %this, ptr noundef nonnull align 8 dereferenceable(16) %runningSpread, ptr nocapture noundef nonnull readonly align 4 dereferenceable(8) %tenor, i32 noundef %settlementDays, ptr nocapture noundef nonnull readonly align 8 dereferenceable(16) %calendar, i32 noundef %frequency, i32 noundef %paymentConvention, i32 noundef %rule, ptr nocapture noundef nonnull readonly align 8 dereferenceable(16) %dayCounter, double noundef %recoveryRate, ptr nocapture noundef nonnull readonly align 8 dereferenceable(16) %discountCurve, i1 noundef zeroext %settlesAccrual, i1 noundef zeroext %paysAtDefaultTime, ptr nocapture noundef nonnull readonly align 8 dereferenceable(8) %startDate, ptr nocapture noundef nonnull readonly align 8 dereferenceable(16) %lastPeriodDayCounter, i1 noundef zeroext %rebatesAccrual, i32 noundef %model) unnamed_addr #8 align 2 personality ptr @__gxx_personality_v0 {
entry:
  %agg.tmp = alloca %"class.QuantLib::Calendar", align 8
  %agg.tmp4 = alloca %"class.QuantLib::DayCounter", align 8
  %agg.tmp6 = alloca %"class.QuantLib::DayCounter", align 8
  %0 = load ptr, ptr %calendar, align 8, !tbaa !94
  store ptr %0, ptr %agg.tmp, align 8, !tbaa !94
  %pn.i.i = getelementptr inbounds nuw i8, ptr %agg.tmp, i64 8
  %pn3.i.i = getelementptr inbounds nuw i8, ptr %calendar, i64 8
  %1 = load ptr, ptr %pn3.i.i, align 8, !tbaa !41
  store ptr %1, ptr %pn.i.i, align 8, !tbaa !41
  %cmp.not.i.i.i = icmp eq ptr %1, null
  br i1 %cmp.not.i.i.i, label %_ZN8QuantLib8CalendarC2ERKS0_.exit, label %if.then.i.i.i

if.then.i.i.i:                                    ; preds = %entry
  %use_count_.i.i.i.i = getelementptr inbounds nuw i8, ptr %1, i64 8
  %2 = atomicrmw add ptr %use_count_.i.i.i.i, i32 1 monotonic, align 4
  br label %_ZN8QuantLib8CalendarC2ERKS0_.exit

_ZN8QuantLib8CalendarC2ERKS0_.exit:               ; preds = %entry, %if.then.i.i.i
  %3 = load ptr, ptr %dayCounter, align 8, !tbaa !98
  store ptr %3, ptr %agg.tmp4, align 8, !tbaa !98
  %pn.i.i1 = getelementptr inbounds nuw i8, ptr %agg.tmp4, i64 8
  %pn3.i.i2 = getelementptr inbounds nuw i8, ptr %dayCounter, i64 8
  %4 = load ptr, ptr %pn3.i.i2, align 8, !tbaa !41
  store ptr %4, ptr %pn.i.i1, align 8, !tbaa !41
  %cmp.not.i.i.i3 = icmp eq ptr %4, null
  br i1 %cmp.not.i.i.i3, label %_ZN8QuantLib10DayCounterC2ERKS0_.exit, label %if.then.i.i.i4

if.then.i.i.i4:                                   ; preds = %_ZN8QuantLib8CalendarC2ERKS0_.exit
  %use_count_.i.i.i.i5 = getelementptr inbounds nuw i8, ptr %4, i64 8
  %5 = atomicrmw add ptr %use_count_.i.i.i.i5, i32 1 monotonic, align 4
  br label %_ZN8QuantLib10DayCounterC2ERKS0_.exit

_ZN8QuantLib10DayCounterC2ERKS0_.exit:            ; preds = %_ZN8QuantLib8CalendarC2ERKS0_.exit, %if.then.i.i.i4
  %6 = load ptr, ptr %lastPeriodDayCounter, align 8, !tbaa !98
  store ptr %6, ptr %agg.tmp6, align 8, !tbaa !98
  %pn.i.i6 = getelementptr inbounds nuw i8, ptr %agg.tmp6, i64 8
  %pn3.i.i7 = getelementptr inbounds nuw i8, ptr %lastPeriodDayCounter, i64 8
  %7 = load ptr, ptr %pn3.i.i7, align 8, !tbaa !41
  store ptr %7, ptr %pn.i.i6, align 8, !tbaa !41
  %cmp.not.i.i.i8 = icmp eq ptr %7, null
  br i1 %cmp.not.i.i.i8, label %_ZN8QuantLib10DayCounterC2ERKS0_.exit11, label %if.then.i.i.i9

if.then.i.i.i9:                                   ; preds = %_ZN8QuantLib10DayCounterC2ERKS0_.exit
  %use_count_.i.i.i.i10 = getelementptr inbounds nuw i8, ptr %7, i64 8
  %8 = atomicrmw add ptr %use_count_.i.i.i.i10, i32 1 monotonic, align 4
  br label %_ZN8QuantLib10DayCounterC2ERKS0_.exit11

_ZN8QuantLib10DayCounterC2ERKS0_.exit11:          ; preds = %_ZN8QuantLib10DayCounterC2ERKS0_.exit, %if.then.i.i.i9
  invoke void @_ZN8QuantLib9CdsHelperC2ERKNS_6HandleINS_5QuoteEEERKNS_6PeriodEiNS_8CalendarENS_9FrequencyENS_21BusinessDayConventionENS_14DateGeneration4RuleENS_10DayCounterEdRKNS1_INS_18YieldTermStructureEEEbbRKNS_4DateESE_bNS_17CreditDefaultSwap12PricingModelE(ptr noundef nonnull align 8 dereferenceable(488) %this, ptr noundef nonnull align 8 dereferenceable(16) %runningSpread, ptr noundef nonnull align 4 dereferenceable(8) %tenor, i32 noundef %settlementDays, ptr noundef nonnull %agg.tmp, i32 noundef %frequency, i32 noundef %paymentConvention, i32 noundef %rule, ptr noundef nonnull %agg.tmp4, double noundef %recoveryRate, ptr noundef nonnull align 8 dereferenceable(16) %discountCurve, i1 noundef zeroext %settlesAccrual, i1 noundef zeroext %paysAtDefaultTime, ptr noundef nonnull align 8 dereferenceable(8) %startDate, ptr noundef nonnull %agg.tmp6, i1 noundef zeroext %rebatesAccrual, i32 noundef %model)
          to label %invoke.cont unwind label %lpad

invoke.cont:                                      ; preds = %_ZN8QuantLib10DayCounterC2ERKS0_.exit11
  %9 = load ptr, ptr %pn.i.i6, align 8, !tbaa !41
  %cmp.not.i.i.i13 = icmp eq ptr %9, null
  br i1 %cmp.not.i.i.i13, label %_ZN8QuantLib10DayCounterD2Ev.exit, label %if.then.i.i.i14

if.then.i.i.i14:                                  ; preds = %invoke.cont
  %use_count_.i.i.i.i15 = getelementptr inbounds nuw i8, ptr %9, i64 8
  %10 = atomicrmw sub ptr %use_count_.i.i.i.i15, i32 1 acq_rel, align 4
  %cmp.i.i.i.i = icmp eq i32 %10, 1
  br i1 %cmp.i.i.i.i, label %if.then.i.i.i.i, label %_ZN8QuantLib10DayCounterD2Ev.exit

if.then.i.i.i.i:                                  ; preds = %if.then.i.i.i14
  %vtable.i.i.i.i = load ptr, ptr %9, align 8, !tbaa !28
  %vfn.i.i.i.i = getelementptr inbounds i8, ptr %vtable.i.i.i.i, i64 16
  %11 = load ptr, ptr %vfn.i.i.i.i, align 8
  invoke void %11(ptr noundef nonnull align 8 dereferenceable(16) %9)
          to label %.noexc.i.i.i unwind label %terminate.lpad.i.i.i

.noexc.i.i.i:                                     ; preds = %if.then.i.i.i.i
  %weak_count_.i.i.i.i.i = getelementptr inbounds nuw i8, ptr %9, i64 12
  %12 = atomicrmw sub ptr %weak_count_.i.i.i.i.i, i32 1 acq_rel, align 4
  %cmp.i.i.i.i.i = icmp eq i32 %12, 1
  br i1 %cmp.i.i.i.i.i, label %if.then.i.i.i.i.i, label %_ZN8QuantLib10DayCounterD2Ev.exit

if.then.i.i.i.i.i:                                ; preds = %.noexc.i.i.i
  %vtable.i.i.i.i.i = load ptr, ptr %9, align 8, !tbaa !28
  %vfn.i.i.i.i.i = getelementptr inbounds i8, ptr %vtable.i.i.i.i.i, i64 24
  %13 = load ptr, ptr %vfn.i.i.i.i.i, align 8
  invoke void %13(ptr noundef nonnull align 8 dereferenceable(16) %9)
          to label %_ZN8QuantLib10DayCounterD2Ev.exit unwind label %terminate.lpad.i.i.i

terminate.lpad.i.i.i:                             ; preds = %if.then.i.i.i.i.i, %if.then.i.i.i.i
  %14 = landingpad { ptr, i32 }
          catch ptr null
  %15 = extractvalue { ptr, i32 } %14, 0
  tail call void @__clang_call_terminate(ptr %15) #26
  unreachable

_ZN8QuantLib10DayCounterD2Ev.exit:                ; preds = %invoke.cont, %if.then.i.i.i14, %.noexc.i.i.i, %if.then.i.i.i.i.i
  %16 = load ptr, ptr %pn.i.i1, align 8, !tbaa !41
  %cmp.not.i.i.i17 = icmp eq ptr %16, null
  br i1 %cmp.not.i.i.i17, label %_ZN8QuantLib10DayCounterD2Ev.exit31, label %if.then.i.i.i18

if.then.i.i.i18:                                  ; preds = %_ZN8QuantLib10DayCounterD2Ev.exit
  %use_count_.i.i.i.i19 = getelementptr inbounds nuw i8, ptr %16, i64 8
  %17 = atomicrmw sub ptr %use_count_.i.i.i.i19, i32 1 acq_rel, align 4
  %cmp.i.i.i.i20 = icmp eq i32 %17, 1
  br i1 %cmp.i.i.i.i20, label %if.then.i.i.i.i21, label %_ZN8QuantLib10DayCounterD2Ev.exit31

if.then.i.i.i.i21:                                ; preds = %if.then.i.i.i18
  %vtable.i.i.i.i22 = load ptr, ptr %16, align 8, !tbaa !28
  %vfn.i.i.i.i23 = getelementptr inbounds i8, ptr %vtable.i.i.i.i22, i64 16
  %18 = load ptr, ptr %vfn.i.i.i.i23, align 8
  invoke void %18(ptr noundef nonnull align 8 dereferenceable(16) %16)
          to label %.noexc.i.i.i25 unwind label %terminate.lpad.i.i.i24

.noexc.i.i.i25:                                   ; preds = %if.then.i.i.i.i21
  %weak_count_.i.i.i.i.i26 = getelementptr inbounds nuw i8, ptr %16, i64 12
  %19 = atomicrmw sub ptr %weak_count_.i.i.i.i.i26, i32 1 acq_rel, align 4
  %cmp.i.i.i.i.i27 = icmp eq i32 %19, 1
  br i1 %cmp.i.i.i.i.i27, label %if.then.i.i.i.i.i28, label %_ZN8QuantLib10DayCounterD2Ev.exit31

if.then.i.i.i.i.i28:                              ; preds = %.noexc.i.i.i25
  %vtable.i.i.i.i.i29 = load ptr, ptr %16, align 8, !tbaa !28
  %vfn.i.i.i.i.i30 = getelementptr inbounds i8, ptr %vtable.i.i.i.i.i29, i64 24
  %20 = load ptr, ptr %vfn.i.i.i.i.i30, align 8
  invoke void %20(ptr noundef nonnull align 8 dereferenceable(16) %16)
          to label %_ZN8QuantLib10DayCounterD2Ev.exit31 unwind label %terminate.lpad.i.i.i24

terminate.lpad.i.i.i24:                           ; preds = %if.then.i.i.i.i.i28, %if.then.i.i.i.i21
  %21 = landingpad { ptr, i32 }
          catch ptr null
  %22 = extractvalue { ptr, i32 } %21, 0
  tail call void @__clang_call_terminate(ptr %22) #26
  unreachable

_ZN8QuantLib10DayCounterD2Ev.exit31:              ; preds = %_ZN8QuantLib10DayCounterD2Ev.exit, %if.then.i.i.i18, %.noexc.i.i.i25, %if.then.i.i.i.i.i28
  %23 = load ptr, ptr %pn.i.i, align 8, !tbaa !41
  %cmp.not.i.i.i33 = icmp eq ptr %23, null
  br i1 %cmp.not.i.i.i33, label %_ZN8QuantLib8CalendarD2Ev.exit, label %if.then.i.i.i34

if.then.i.i.i34:                                  ; preds = %_ZN8QuantLib10DayCounterD2Ev.exit31
  %use_count_.i.i.i.i35 = getelementptr inbounds nuw i8, ptr %23, i64 8
  %24 = atomicrmw sub ptr %use_count_.i.i.i.i35, i32 1 acq_rel, align 4
  %cmp.i.i.i.i36 = icmp eq i32 %24, 1
  br i1 %cmp.i.i.i.i36, label %if.then.i.i.i.i37, label %_ZN8QuantLib8CalendarD2Ev.exit

if.then.i.i.i.i37:                                ; preds = %if.then.i.i.i34
  %vtable.i.i.i.i38 = load ptr, ptr %23, align 8, !tbaa !28
  %vfn.i.i.i.i39 = getelementptr inbounds i8, ptr %vtable.i.i.i.i38, i64 16
  %25 = load ptr, ptr %vfn.i.i.i.i39, align 8
  invoke void %25(ptr noundef nonnull align 8 dereferenceable(16) %23)
          to label %.noexc.i.i.i41 unwind label %terminate.lpad.i.i.i40

.noexc.i.i.i41:                                   ; preds = %if.then.i.i.i.i37
  %weak_count_.i.i.i.i.i42 = getelementptr inbounds nuw i8, ptr %23, i64 12
  %26 = atomicrmw sub ptr %weak_count_.i.i.i.i.i42, i32 1 acq_rel, align 4
  %cmp.i.i.i.i.i43 = icmp eq i32 %26, 1
  br i1 %cmp.i.i.i.i.i43, label %if.then.i.i.i.i.i44, label %_ZN8QuantLib8CalendarD2Ev.exit

if.then.i.i.i.i.i44:                              ; preds = %.noexc.i.i.i41
  %vtable.i.i.i.i.i45 = load ptr, ptr %23, align 8, !tbaa !28
  %vfn.i.i.i.i.i46 = getelementptr inbounds i8, ptr %vtable.i.i.i.i.i45, i64 24
  %27 = load ptr, ptr %vfn.i.i.i.i.i46, align 8
  invoke void %27(ptr noundef nonnull align 8 dereferenceable(16) %23)
          to label %_ZN8QuantLib8CalendarD2Ev.exit unwind label %terminate.lpad.i.i.i40

terminate.lpad.i.i.i40:                           ; preds = %if.then.i.i.i.i.i44, %if.then.i.i.i.i37
  %28 = landingpad { ptr, i32 }
          catch ptr null
  %29 = extractvalue { ptr, i32 } %28, 0
  tail call void @__clang_call_terminate(ptr %29) #26
  unreachable

_ZN8QuantLib8CalendarD2Ev.exit:                   ; preds = %_ZN8QuantLib10DayCounterD2Ev.exit31, %if.then.i.i.i34, %.noexc.i.i.i41, %if.then.i.i.i.i.i44
  store ptr getelementptr inbounds inrange(-16, 112) (i8, ptr @_ZTVN8QuantLib15SpreadCdsHelperE, i64 16), ptr %this, align 8, !tbaa !28
  %add.ptr = getelementptr inbounds i8, ptr %this, i64 56
  store ptr getelementptr inbounds inrange(-16, 16) (i8, ptr @_ZTVN8QuantLib15SpreadCdsHelperE, i64 144), ptr %add.ptr, align 8, !tbaa !28
  ret void

lpad:                                             ; preds = %_ZN8QuantLib10DayCounterC2ERKS0_.exit11
  %30 = landingpad { ptr, i32 }
          cleanup
  call void @_ZN8QuantLib10DayCounterD2Ev(ptr noundef nonnull align 8 dereferenceable(16) %agg.tmp6) #25
  call void @_ZN8QuantLib10DayCounterD2Ev(ptr noundef nonnull align 8 dereferenceable(16) %agg.tmp4) #25
  call void @_ZN8QuantLib8CalendarD2Ev(ptr noundef nonnull align 8 dereferenceable(16) %agg.tmp) #25
  resume { ptr, i32 } %30
}